target datalayout = "e-m:e-p270:32:32-p271:32:32-p272:64:64-i64:64-i128:128-f80:128-n8:16:32:64-S128"
target triple = "x86_64-pc-linux-gnu"

%class.aig_lit = type { ptr }
%class.aig_ref = type { ptr, ptr }
%class.aig_manager = type { ptr }

@_ZN7aig_refC1ER11aig_managerRK7aig_lit = hidden unnamed_addr alias void (ptr, ptr, ptr), ptr @_ZN7aig_refC2ER11aig_managerRK7aig_lit

; Function Attrs: mustprogress uwtable
define linkonce_odr hidden ptr @_ZN11aig_manager3imp6mk_andE7aig_litS1_(ptr noundef nonnull align 8 dereferenceable(680) %0, ptr %1, ptr %2) #5 comdat align 2 {
  %4 = alloca %class.aig_lit, align 8
  %5 = alloca %class.aig_lit, align 8
  %6 = alloca %class.aig_lit, align 8
  %7 = alloca ptr, align 8
  %8 = alloca %class.aig_lit, align 8
  %9 = alloca %class.aig_lit, align 8
  %10 = getelementptr inbounds nuw %class.aig_lit, ptr %5, i32 0, i32 0
  store ptr %1, ptr %10, align 8
  %11 = getelementptr inbounds nuw %class.aig_lit, ptr %6, i32 0, i32 0
  store ptr %2, ptr %11, align 8
  store ptr %0, ptr %7, align 8, !tbaa !22
  %12 = load ptr, ptr %7, align 8
  call void @llvm.memcpy.p0.p0.i64(ptr align 8 %8, ptr align 8 %5, i64 8, i1 false), !tbaa.struct !60
  call void @llvm.memcpy.p0.p0.i64(ptr align 8 %9, ptr align 8 %6, i64 8, i1 false), !tbaa.struct !60
  %13 = getelementptr inbounds nuw %class.aig_lit, ptr %8, i32 0, i32 0
  %14 = load ptr, ptr %13, align 8
  %15 = getelementptr inbounds nuw %class.aig_lit, ptr %9, i32 0, i32 0
  %16 = load ptr, ptr %15, align 8
  %17 = call ptr @_ZN11aig_manager3imp7mk_nodeE7aig_litS1_(ptr noundef nonnull align 8 dereferenceable(680) %12, ptr %14, ptr %16)
  %18 = getelementptr inbounds nuw %class.aig_lit, ptr %4, i32 0, i32 0
  store ptr %17, ptr %18, align 8
  %19 = getelementptr inbounds nuw %class.aig_lit, ptr %4, i32 0, i32 0
  %20 = load ptr, ptr %19, align 8
  ret ptr %20
}

; Function Attrs: mustprogress nounwind uwtable
define linkonce_odr hidden void @_ZN7aig_lit6invertEv(ptr noundef nonnull align 8 dereferenceable(8) %0) #4 comdat align 2 {
  %2 = alloca ptr, align 8
  store ptr %0, ptr %2, align 8, !tbaa !3
  %3 = load ptr, ptr %2, align 8
  %4 = getelementptr inbounds nuw %class.aig_lit, ptr %3, i32 0, i32 0
  %5 = load ptr, ptr %4, align 8, !tbaa !10
  %6 = ptrtoint ptr %5 to i64
  %7 = xor i64 %6, 1
  %8 = inttoptr i64 %7 to ptr
  %9 = getelementptr inbounds nuw %class.aig_lit, ptr %3, i32 0, i32 0
  store ptr %8, ptr %9, align 8, !tbaa !10
  ret void
}

; Function Attrs: mustprogress uwtable
define linkonce_odr hidden ptr @_ZN11aig_manager3imp5mk_orE7aig_litS1_(ptr noundef nonnull align 8 dereferenceable(680) %0, ptr %1, ptr %2) #5 comdat align 2 {
  %4 = alloca %class.aig_lit, align 8
  %5 = alloca %class.aig_lit, align 8
  %6 = alloca %class.aig_lit, align 8
  %7 = alloca ptr, align 8
  %8 = alloca %class.aig_lit, align 8
  %9 = alloca %class.aig_lit, align 8
  %10 = getelementptr inbounds nuw %class.aig_lit, ptr %5, i32 0, i32 0
  store ptr %1, ptr %10, align 8
  %11 = getelementptr inbounds nuw %class.aig_lit, ptr %6, i32 0, i32 0
  store ptr %2, ptr %11, align 8
  store ptr %0, ptr %7, align 8, !tbaa !22
  %12 = load ptr, ptr %7, align 8
  call void @_ZN7aig_lit6invertEv(ptr noundef nonnull align 8 dereferenceable(8) %5)
  call void @_ZN7aig_lit6invertEv(ptr noundef nonnull align 8 dereferenceable(8) %6)
  call void @llvm.memcpy.p0.p0.i64(ptr align 8 %8, ptr align 8 %5, i64 8, i1 false), !tbaa.struct !60
  call void @llvm.memcpy.p0.p0.i64(ptr align 8 %9, ptr align 8 %6, i64 8, i1 false), !tbaa.struct !60
  %13 = getelementptr inbounds nuw %class.aig_lit, ptr %8, i32 0, i32 0
  %14 = load ptr, ptr %13, align 8
  %15 = getelementptr inbounds nuw %class.aig_lit, ptr %9, i32 0, i32 0
  %16 = load ptr, ptr %15, align 8
  %17 = call ptr @_ZN11aig_manager3imp6mk_andE7aig_litS1_(ptr noundef nonnull align 8 dereferenceable(680) %12, ptr %14, ptr %16)
  %18 = getelementptr inbounds nuw %class.aig_lit, ptr %4, i32 0, i32 0
  store ptr %17, ptr %18, align 8
  call void @_ZN7aig_lit6invertEv(ptr noundef nonnull align 8 dereferenceable(8) %4)
  %19 = getelementptr inbounds nuw %class.aig_lit, ptr %4, i32 0, i32 0
  %20 = load ptr, ptr %19, align 8
  ret ptr %20
}

; Function Attrs: mustprogress nounwind uwtable
define linkonce_odr hidden void @_ZN7aig_litC2ERK7aig_ref(ptr noundef nonnull align 8 dereferenceable(8) %0, ptr noundef nonnull align 8 dereferenceable(16) %1) unnamed_addr #4 comdat align 2 {
  %3 = alloca ptr, align 8
  %4 = alloca ptr, align 8
  store ptr %0, ptr %3, align 8, !tbaa !3
  store ptr %1, ptr %4, align 8, !tbaa !12
  %5 = load ptr, ptr %3, align 8
  %6 = getelementptr inbounds nuw %class.aig_lit, ptr %5, i32 0, i32 0
  %7 = load ptr, ptr %4, align 8, !tbaa !12
  %8 = getelementptr inbounds nuw %class.aig_ref, ptr %7, i32 0, i32 1
  %9 = load ptr, ptr %8, align 8, !tbaa !17
  store ptr %9, ptr %6, align 8, !tbaa !10
  ret void
}

; Function Attrs: mustprogress uwtable
define hidden void @_ZN11aig_manager5mk_orERK7aig_refS2_(ptr dead_on_unwind noalias writable sret(%class.aig_ref) align 8 %0, ptr noundef nonnull align 8 dereferenceable(8) %1, ptr noundef nonnull align 8 dereferenceable(16) %2, ptr noundef nonnull align 8 dereferenceable(16) %3) #5 align 2 {
  %5 = alloca ptr, align 8
  %6 = alloca ptr, align 8
  %7 = alloca ptr, align 8
  %8 = alloca ptr, align 8
  %9 = alloca %class.aig_lit, align 8
  %10 = alloca %class.aig_lit, align 8
  %11 = alloca %class.aig_lit, align 8
  store ptr %0, ptr %5, align 8
  store ptr %1, ptr %6, align 8, !tbaa !18
  store ptr %2, ptr %7, align 8, !tbaa !12
  store ptr %3, ptr %8, align 8, !tbaa !12
  %12 = load ptr, ptr %6, align 8
  call void @llvm.lifetime.start.p0(i64 8, ptr %9) #3
  %13 = getelementptr inbounds nuw %class.aig_manager, ptr %12, i32 0, i32 0
  %14 = load ptr, ptr %13, align 8, !tbaa !19
  %15 = load ptr, ptr %7, align 8, !tbaa !12
  call void @_ZN7aig_litC2ERK7aig_ref(ptr noundef nonnull align 8 dereferenceable(8) %10, ptr noundef nonnull align 8 dereferenceable(16) %15)
  %16 = load ptr, ptr %8, align 8, !tbaa !12
  call void @_ZN7aig_litC2ERK7aig_ref(ptr noundef nonnull align 8 dereferenceable(8) %11, ptr noundef nonnull align 8 dereferenceable(16) %16)
  %17 = getelementptr inbounds nuw %class.aig_lit, ptr %10, i32 0, i32 0
  %18 = load ptr, ptr %17, align 8
  %19 = getelementptr inbounds nuw %class.aig_lit, ptr %11, i32 0, i32 0
  %20 = load ptr, ptr %19, align 8
  %21 = call ptr @_ZN11aig_manager3imp5mk_orE7aig_litS1_(ptr noundef nonnull align 8 dereferenceable(680) %14, ptr %18, ptr %20)
  %22 = getelementptr inbounds nuw %class.aig_lit, ptr %9, i32 0, i32 0
  store ptr %21, ptr %22, align 8
  call void @_ZN7aig_refC1ER11aig_managerRK7aig_lit(ptr noundef nonnull align 8 dereferenceable(16) %0, ptr noundef nonnull align 8 dereferenceable(8) %12, ptr noundef nonnull align 8 dereferenceable(8) %9)
  call void @llvm.lifetime.end.p0(i64 8, ptr %9) #3
  ret void
}