; Function Attrs: mustprogress uwtable
define hidden void @_ZN11aig_manager5mk_orERK7aig_refS2_(ptr dead_on_unwind noalias writable writeonly sret(%class.aig_ref) align 8 captures(none) initializes((0, 16)) %0, ptr noundef nonnull align 8 dereferenceable(8) %1, ptr noundef nonnull readonly align 8 captures(none) dereferenceable(16) %2, ptr noundef nonnull readonly align 8 captures(none) dereferenceable(16) %3) local_unnamed_addr #6 align 2 {
  %5 = load ptr, ptr %1, align 8, !tbaa !16
  %6 = getelementptr inbounds nuw i8, ptr %2, i64 8
  %7 = load ptr, ptr %6, align 8, !tbaa !12
  %8 = getelementptr inbounds nuw i8, ptr %3, i64 8
  %9 = load ptr, ptr %8, align 8, !tbaa !12
  %10 = ptrtoint ptr %7 to i64
  %11 = xor i64 %10, 1
  %12 = inttoptr i64 %11 to ptr
  %13 = ptrtoint ptr %9 to i64
  %14 = xor i64 %13, 1
  %15 = inttoptr i64 %14 to ptr
  %16 = tail call ptr @_ZN11aig_manager3imp7mk_nodeE7aig_litS1_(ptr noundef nonnull align 8 dereferenceable(680) %5, ptr %12, ptr %15)
  %17 = ptrtoint ptr %16 to i64
  %18 = xor i64 %17, 1
  %19 = inttoptr i64 %18 to ptr
  store ptr %1, ptr %0, align 8, !tbaa !3
  %20 = getelementptr inbounds nuw i8, ptr %0, i64 8
  store ptr %19, ptr %20, align 8, !tbaa !12
  %21 = and i64 %17, -2
  %22 = inttoptr i64 %21 to ptr
  %23 = getelementptr inbounds nuw i8, ptr %22, i64 4
  %24 = load i32, ptr %23, align 4, !tbaa !13
  %25 = add i32 %24, 1
  store i32 %25, ptr %23, align 4, !tbaa !13
  ret void
}